; Function Attrs: mustprogress uwtable
define dso_local void @_ZNK3net19QuicFixedIPEndPoint18ToHandshakeMessageEPNS_22CryptoHandshakeMessageE(ptr noundef nonnull align 8 dereferenceable(89) %this, ptr noundef %out) unnamed_addr #0 align 2 personality ptr @__gxx_personality_v0 {
entry:
  %address_coder = alloca %"class.net::QuicSocketAddressCoder", align 8
  %agg.tmp = alloca %"class.base::BasicStringPiece", align 8
  %ref.tmp = alloca %"class.std::__cxx11::basic_string", align 8
  %has_send_value_ = getelementptr inbounds i8, ptr %this, i64 48
  %0 = load i8, ptr %has_send_value_, align 8
  %1 = and i8 %0, 1
  %tobool.not = icmp eq i8 %1, 0
  br i1 %tobool.not, label %if.end, label %if.then

if.then:                                          ; preds = %entry
  %send_value_ = getelementptr inbounds i8, ptr %this, i64 16
  call void @_ZN3net22QuicSocketAddressCoderC1ERKNS_10IPEndPointE(ptr noundef nonnull align 8 dereferenceable(32) %address_coder, ptr noundef nonnull align 8 dereferenceable(26) %send_value_)
  %tag_ = getelementptr inbounds i8, ptr %this, i64 8
  %2 = load i32, ptr %tag_, align 8
  invoke void @_ZNK3net22QuicSocketAddressCoder6EncodeB5cxx11Ev(ptr nonnull sret(%"class.std::__cxx11::basic_string") align 8 %ref.tmp, ptr noundef nonnull align 8 dereferenceable(32) %address_coder)
          to label %invoke.cont unwind label %lpad

invoke.cont:                                      ; preds = %if.then
  invoke void @_ZN4base16BasicStringPieceINSt7__cxx1112basic_stringIcSt11char_traitsIcESaIcEEEEC1ERKS6_(ptr noundef nonnull align 8 dereferenceable(16) %agg.tmp, ptr noundef nonnull align 8 dereferenceable(32) %ref.tmp)
          to label %invoke.cont3 unwind label %lpad2

invoke.cont3:                                     ; preds = %invoke.cont
  %3 = load ptr, ptr %agg.tmp, align 8
  %4 = getelementptr inbounds i8, ptr %agg.tmp, i64 8
  %5 = load i64, ptr %4, align 8
  invoke void @_ZN3net22CryptoHandshakeMessage14SetStringPieceEjN4base16BasicStringPieceINSt7__cxx1112basic_stringIcSt11char_traitsIcESaIcEEEEE(ptr noundef nonnull align 8 dereferenceable(72) %out, i32 noundef %2, ptr %3, i64 %5)
          to label %invoke.cont4 unwind label %lpad2

invoke.cont4:                                     ; preds = %invoke.cont3
  call void @_ZNSt7__cxx1112basic_stringIcSt11char_traitsIcESaIcEED1Ev(ptr noundef nonnull align 8 dereferenceable(32) %ref.tmp) #17
  call void @_ZN3net22QuicSocketAddressCoderD1Ev(ptr noundef nonnull align 8 dereferenceable(32) %address_coder) #17
  br label %if.end

lpad:                                             ; preds = %if.then
  %6 = landingpad { ptr, i32 }
          cleanup
  br label %ehcleanup

lpad2:                                            ; preds = %invoke.cont3, %invoke.cont
  %7 = landingpad { ptr, i32 }
          cleanup
  call void @_ZNSt7__cxx1112basic_stringIcSt11char_traitsIcESaIcEED1Ev(ptr noundef nonnull align 8 dereferenceable(32) %ref.tmp) #17
  br label %ehcleanup

ehcleanup:                                        ; preds = %lpad2, %lpad
  %.pn = phi { ptr, i32 } [ %7, %lpad2 ], [ %6, %lpad ]
  call void @_ZN3net22QuicSocketAddressCoderD1Ev(ptr noundef nonnull align 8 dereferenceable(32) %address_coder) #17
  resume { ptr, i32 } %.pn

if.end:                                           ; preds = %invoke.cont4, %entry
  ret void
}